target datalayout = "e-m:e-p270:32:32-p271:32:32-p272:64:64-i64:64-i128:128-f80:128-n8:16:32:64-S128"
target triple = "x86_64-pc-linux-gnu"

%"class.gmx::ImdSession::Impl" = type { i8, ptr, i32, i32, ptr, ptr, i32, ptr, ptr, ptr, ptr, ptr, i32, i32, i32, i32, ptr, ptr, i32, i8, i8, i8, i8, i8, ptr, i32, ptr, ptr, i32, ptr, ptr, ptr, ptr, ptr, %struct.t_block, i32, ptr, ptr, ptr, ptr, ptr, ptr }
%struct.t_block = type { i32, ptr, i32 }

@.str.3 = private unnamed_addr constant [117 x i8] c"generated/home/dtcxzyw/WorkSpace/Projects/compilers/llvm-opt-benchmark/bench/gromacs/gromacs/src/gromacs/imd/imd.cpp\00", align 1
@.str.19 = private unnamed_addr constant [12 x i8] c"(vmd_f_ind)\00", align 1
@.str.20 = private unnamed_addr constant [13 x i8] c"(vmd_forces)\00", align 1

; Function Attrs: inlinehint mustprogress uwtable
define internal void @_ZL15gmx_srenew_implIfEvPKcS1_iRPT_m(ptr noundef %0, ptr noundef %1, i32 noundef %2, ptr noundef nonnull align 8 dereferenceable(8) %3, i64 noundef %4) #2 {
  %6 = alloca ptr, align 8
  %7 = alloca ptr, align 8
  %8 = alloca i32, align 4
  %9 = alloca ptr, align 8
  %10 = alloca i64, align 8
  store ptr %0, ptr %6, align 8, !tbaa !86
  store ptr %1, ptr %7, align 8, !tbaa !86
  store i32 %2, ptr %8, align 4, !tbaa !70
  store ptr %3, ptr %9, align 8, !tbaa !323
  store i64 %4, ptr %10, align 8, !tbaa !193
  %11 = load ptr, ptr %6, align 8, !tbaa !86
  %12 = load ptr, ptr %7, align 8, !tbaa !86
  %13 = load i32, ptr %8, align 4, !tbaa !70
  %14 = load ptr, ptr %9, align 8, !tbaa !323
  %15 = load ptr, ptr %14, align 8, !tbaa !324
  %16 = load i64, ptr %10, align 8, !tbaa !193
  %17 = call noundef ptr @_Z12save_reallocPKcS0_iPvmm(ptr noundef %11, ptr noundef %12, i32 noundef %13, ptr noundef %15, i64 noundef %16, i64 noundef 4)
  %18 = load ptr, ptr %9, align 8, !tbaa !323
  store ptr %17, ptr %18, align 8, !tbaa !324
  ret void
}

; Function Attrs: inlinehint mustprogress uwtable
define internal void @_ZL15gmx_srenew_implIiEvPKcS1_iRPT_m(ptr noundef %0, ptr noundef %1, i32 noundef %2, ptr noundef nonnull align 8 dereferenceable(8) %3, i64 noundef %4) #2 {
  %6 = alloca ptr, align 8
  %7 = alloca ptr, align 8
  %8 = alloca i32, align 4
  %9 = alloca ptr, align 8
  %10 = alloca i64, align 8
  store ptr %0, ptr %6, align 8, !tbaa !86
  store ptr %1, ptr %7, align 8, !tbaa !86
  store i32 %2, ptr %8, align 4, !tbaa !70
  store ptr %3, ptr %9, align 8, !tbaa !321
  store i64 %4, ptr %10, align 8, !tbaa !193
  %11 = load ptr, ptr %6, align 8, !tbaa !86
  %12 = load ptr, ptr %7, align 8, !tbaa !86
  %13 = load i32, ptr %8, align 4, !tbaa !70
  %14 = load ptr, ptr %9, align 8, !tbaa !321
  %15 = load ptr, ptr %14, align 8, !tbaa !311
  %16 = load i64, ptr %10, align 8, !tbaa !193
  %17 = call noundef ptr @_Z12save_reallocPKcS0_iPvmm(ptr noundef %11, ptr noundef %12, i32 noundef %13, ptr noundef %15, i64 noundef %16, i64 noundef 4)
  %18 = load ptr, ptr %9, align 8, !tbaa !321
  store ptr %17, ptr %18, align 8, !tbaa !311
  ret void
}

; Function Attrs: mustprogress uwtable
define void @_ZN3gmx10ImdSession4Impl16prepareVmdForcesEv(ptr noundef nonnull align 8 dereferenceable(296) %0) #0 align 2 {
  %2 = alloca ptr, align 8
  store ptr %0, ptr %2, align 8, !tbaa !266
  %3 = load ptr, ptr %2, align 8
  %4 = getelementptr inbounds nuw %"class.gmx::ImdSession::Impl", ptr %3, i32 0, i32 26
  %5 = getelementptr inbounds nuw %"class.gmx::ImdSession::Impl", ptr %3, i32 0, i32 25
  %6 = load i32, ptr %5, align 8, !tbaa !320
  %7 = sext i32 %6 to i64
  call void @_ZL15gmx_srenew_implIiEvPKcS1_iRPT_m(ptr noundef @.str.19, ptr noundef @.str.3, i32 noundef 724, ptr noundef nonnull align 8 dereferenceable(8) %4, i64 noundef %7)
  %8 = getelementptr inbounds nuw %"class.gmx::ImdSession::Impl", ptr %3, i32 0, i32 27
  %9 = getelementptr inbounds nuw %"class.gmx::ImdSession::Impl", ptr %3, i32 0, i32 25
  %10 = load i32, ptr %9, align 8, !tbaa !320
  %11 = mul nsw i32 3, %10
  %12 = sext i32 %11 to i64
  call void @_ZL15gmx_srenew_implIfEvPKcS1_iRPT_m(ptr noundef @.str.20, ptr noundef @.str.3, i32 noundef 725, ptr noundef nonnull align 8 dereferenceable(8) %8, i64 noundef %12)
  ret void
}