; Function Attrs: mustprogress uwtable
define void @_ZN3gmx10ImdSession4Impl16prepareVmdForcesEv(ptr noundef nonnull align 8 captures(none) dereferenceable(296) %0) local_unnamed_addr #0 align 2 {
  %2 = getelementptr inbounds nuw i8, ptr %0, i64 152
  %3 = getelementptr inbounds nuw i8, ptr %0, i64 144
  %4 = load i32, ptr %3, align 8, !tbaa !166
  %5 = sext i32 %4 to i64
  %6 = load ptr, ptr %2, align 8, !tbaa !167
  %7 = tail call noundef ptr @_Z12save_reallocPKcS0_iPvmm(ptr noundef nonnull @.str.19, ptr noundef nonnull @.str.3, i32 noundef 724, ptr noundef %6, i64 noundef range(i64 -2147483648, 2147483648) %5, i64 noundef 4)
  store ptr %7, ptr %2, align 8, !tbaa !167
  %8 = getelementptr inbounds nuw i8, ptr %0, i64 160
  %9 = load i32, ptr %3, align 8, !tbaa !166
  %10 = mul nsw i32 %9, 3
  %11 = sext i32 %10 to i64
  %12 = load ptr, ptr %8, align 8, !tbaa !168
  %13 = tail call noundef ptr @_Z12save_reallocPKcS0_iPvmm(ptr noundef nonnull @.str.20, ptr noundef nonnull @.str.3, i32 noundef 725, ptr noundef %12, i64 noundef range(i64 -2147483648, 2147483648) %11, i64 noundef 4)
  store ptr %13, ptr %8, align 8, !tbaa !168
  ret void
}